CCS PCM C Compiler, Version 5.008, 5967               02-Jul-25 15:09

               Filename:   K:\EIOT\EX 1\3 LED\main.lst

               ROM used:   109 words (1%)
                           Largest free fragment is 2048
               RAM used:   5 (1%) at main() level
                           6 (2%) worst case
               Stack used: 1 locations
               Stack size: 8

*
0000:  MOVLW  00
0001:  MOVWF  0A
0002:  GOTO   019
0003:  NOP
.................... #include <16F877A.h> 
.................... //////// Standard Header file for the PIC16F877A device //////////////// 
.................... #device PIC16F877A 
....................  
.................... #list 
....................  
.................... #device ADC=16 
....................  
.................... #FUSES NOWDT 
.................... #FUSES PUT 
.................... #FUSES NOBROWNOUT 
.................... #FUSES NOLVP 
....................  
.................... #use delay(crystal=4MHz)  // 4MHz 
0004:  MOVLW  21
0005:  MOVWF  04
0006:  BCF    03.7
0007:  MOVF   00,W
0008:  BTFSC  03.2
0009:  GOTO   018
000A:  MOVLW  01
000B:  MOVWF  78
000C:  CLRF   77
000D:  DECFSZ 77,F
000E:  GOTO   00D
000F:  DECFSZ 78,F
0010:  GOTO   00C
0011:  MOVLW  4A
0012:  MOVWF  77
0013:  DECFSZ 77,F
0014:  GOTO   013
0015:  GOTO   016
0016:  DECFSZ 00,F
0017:  GOTO   00A
0018:  RETURN
....................  
.................... #use FIXED_IO(B_outputs=PIN_B0,PIN_B1,PIN_B2,PIN_B3,PIN_B4,PIN_B5,PIN_B6,PIN_B7) 
....................  
.................... void main() 
0019:  MOVF   03,W
001A:  ANDLW  1F
001B:  MOVWF  03
001C:  BSF    03.5
001D:  BSF    1F.0
001E:  BSF    1F.1
001F:  BSF    1F.2
0020:  BCF    1F.3
0021:  MOVLW  07
0022:  MOVWF  1C
0023:  BCF    03.7
.................... { 
....................    while(TRUE) 
....................    { 
....................        
....................       output_b(0x01); 
0024:  CLRF   06
0025:  MOVLW  01
0026:  BCF    03.5
0027:  MOVWF  06
....................       delay_ms(100);  
0028:  MOVLW  64
0029:  MOVWF  21
002A:  CALL   004
....................        
....................       output_b(0x02); 
002B:  BSF    03.5
002C:  CLRF   06
002D:  MOVLW  02
002E:  BCF    03.5
002F:  MOVWF  06
....................       delay_ms(100); 
0030:  MOVLW  64
0031:  MOVWF  21
0032:  CALL   004
....................        
....................       output_b(0x04); 
0033:  BSF    03.5
0034:  CLRF   06
0035:  MOVLW  04
0036:  BCF    03.5
0037:  MOVWF  06
....................       delay_ms(100); 
0038:  MOVLW  64
0039:  MOVWF  21
003A:  CALL   004
....................        
....................       output_b(0x08); 
003B:  BSF    03.5
003C:  CLRF   06
003D:  MOVLW  08
003E:  BCF    03.5
003F:  MOVWF  06
....................       delay_ms(100); 
0040:  MOVLW  64
0041:  MOVWF  21
0042:  CALL   004
....................        
....................       output_b(0x10); 
0043:  BSF    03.5
0044:  CLRF   06
0045:  MOVLW  10
0046:  BCF    03.5
0047:  MOVWF  06
....................       delay_ms(100); 
0048:  MOVLW  64
0049:  MOVWF  21
004A:  CALL   004
....................        
....................       output_b(0x20); 
004B:  BSF    03.5
004C:  CLRF   06
004D:  MOVLW  20
004E:  BCF    03.5
004F:  MOVWF  06
....................       delay_ms(100); 
0050:  MOVLW  64
0051:  MOVWF  21
0052:  CALL   004
....................        
....................       output_b(0x40); 
0053:  BSF    03.5
0054:  CLRF   06
0055:  MOVLW  40
0056:  BCF    03.5
0057:  MOVWF  06
....................       delay_ms(100); 
0058:  MOVLW  64
0059:  MOVWF  21
005A:  CALL   004
....................        
....................       output_b(0x80); 
005B:  BSF    03.5
005C:  CLRF   06
005D:  MOVLW  80
005E:  BCF    03.5
005F:  MOVWF  06
....................       delay_ms(100); 
0060:  MOVLW  64
0061:  MOVWF  21
0062:  CALL   004
....................        
....................       output_b(0x00); 
0063:  BSF    03.5
0064:  CLRF   06
0065:  BCF    03.5
0066:  CLRF   06
....................       delay_ms(100); 
0067:  MOVLW  64
0068:  MOVWF  21
0069:  CALL   004
006A:  BSF    03.5
006B:  GOTO   024
....................  
....................        
....................    } 
.................... } 
....................  
006C:  SLEEP

Configuration Fuses:
   Word  1: 3F31   XT NOWDT PUT NOBROWNOUT NOLVP NOCPD NOWRT NODEBUG NOPROTECT
